target datalayout = "e-m:e-p270:32:32-p271:32:32-p272:64:64-i64:64-i128:128-f80:128-n8:16:32:64-S128"
target triple = "x86_64-pc-linux-gnu"

; Function Attrs: mustprogress uwtable
define void @_ZN6casadi15GenericExternalC2ERNS_19DeserializingStreamE(ptr noundef nonnull align 8 dereferenceable(1560) %0, ptr noundef nonnull align 8 dereferenceable(41) %1) unnamed_addr #4 align 2 personality ptr @__gxx_personality_v0 {
  %3 = alloca ptr, align 8
  %4 = alloca ptr, align 8
  %5 = alloca ptr, align 8
  %6 = alloca i32, align 4
  store ptr %0, ptr %3, align 8, !tbaa !145
  store ptr %1, ptr %4, align 8, !tbaa !186
  %7 = load ptr, ptr %3, align 8
  %8 = load ptr, ptr %4, align 8, !tbaa !186
  call void @_ZN6casadi8ExternalC2ERNS_19DeserializingStreamE(ptr noundef nonnull align 8 dereferenceable(1520) %7, ptr noundef nonnull align 8 dereferenceable(41) %8)
  store ptr getelementptr inbounds inrange(-16, 944) ({ [120 x ptr] }, ptr @_ZTVN6casadi15GenericExternalE, i32 0, i32 0, i32 2), ptr %7, align 8, !tbaa !39
  invoke void @_ZN6casadi15GenericExternal13init_externalEv(ptr noundef nonnull align 8 dereferenceable(1560) %7)
          to label %9 unwind label %10

9:                                                ; preds = %2
  ret void

10:                                               ; preds = %2
  %11 = landingpad { ptr, i32 }
          cleanup
  %12 = extractvalue { ptr, i32 } %11, 0
  store ptr %12, ptr %5, align 8
  %13 = extractvalue { ptr, i32 } %11, 1
  store i32 %13, ptr %6, align 4
  call void @_ZN6casadi8ExternalD2Ev(ptr noundef nonnull align 8 dereferenceable(1520) %7) #3
  br label %14

14:                                               ; preds = %10
  %15 = load ptr, ptr %5, align 8
  %16 = load i32, ptr %6, align 4
  %17 = insertvalue { ptr, i32 } poison, ptr %15, 0
  %18 = insertvalue { ptr, i32 } %17, i32 %16, 1
  resume { ptr, i32 } %18
}