; Function Attrs: mustprogress uwtable
define void @_ZN6casadi15GenericExternalC2ERNS_19DeserializingStreamE(ptr noundef nonnull align 8 dereferenceable(1560) %0, ptr noundef nonnull align 8 dereferenceable(41) %1) unnamed_addr #3 align 2 personality ptr @__gxx_personality_v0 {
  tail call void @_ZN6casadi8ExternalC2ERNS_19DeserializingStreamE(ptr noundef nonnull align 8 dereferenceable(1520) %0, ptr noundef nonnull align 8 dereferenceable(41) %1)
  store ptr getelementptr inbounds nuw inrange(-16, 944) (i8, ptr @_ZTVN6casadi15GenericExternalE, i64 16), ptr %0, align 8, !tbaa !44
  invoke void @_ZN6casadi15GenericExternal13init_externalEv(ptr noundef nonnull align 8 dereferenceable(1560) %0)
          to label %3 unwind label %4

3:                                                ; preds = %2
  ret void

4:                                                ; preds = %2
  %5 = landingpad { ptr, i32 }
          cleanup
  tail call void @_ZN6casadi8ExternalD2Ev(ptr noundef nonnull align 8 dereferenceable(1520) %0) #26
  resume { ptr, i32 } %5
}